Certificate:
    Data:
        Version: 3 (0x2)
        Serial Number:
            62:60:bc:2f:3c:83:34:da:3e:1a:ad:2c:2a:a1:fa:81
        Signature Algorithm: sha256WithRSAEncryption
        Issuer: CN=Kaholodemo Root CA 1
        Validity
            Not Before: Sep 19 12:35:36 2022 GMT
            Not After : Dec 22 12:35:36 2024 GMT
        Subject: C=FI, ST=Kymenlaakso, L=Hamina, O=Kaholodemo, OU=Training and Demonstration, CN=kaholo-d.kaholodemo.net/emailAddress=admin@kaholodemo.net
        Subject Public Key Info:
            Public Key Algorithm: rsaEncryption
                Public-Key: (2048 bit)
                Modulus:
                    00:e1:a2:9d:bd:f1:93:cc:7a:28:6f:2e:c8:f1:12:
                    33:05:76:67:a0:94:03:d4:e7:0a:1b:81:f9:fe:f3:
                    e1:20:86:b8:28:67:d2:48:e4:07:bc:7a:5f:c8:35:
                    a5:a3:33:bc:e2:ad:c4:9d:c6:24:7d:b8:2b:ab:48:
                    1b:b8:cd:ed:b9:9c:33:6e:90:6b:c1:df:c7:73:c8:
                    17:5c:12:0a:5c:af:7f:a8:ac:17:d1:4e:11:d0:c8:
                    c7:56:68:b2:93:8a:03:17:89:70:0e:ce:f2:51:85:
                    c5:66:b3:47:3c:f0:cb:a3:40:07:40:46:ca:c5:37:
                    b5:7a:61:4d:a2:f8:f0:8b:2a:06:af:cf:16:e5:92:
                    bc:96:96:f6:c9:51:c1:f7:47:c5:c9:1b:2f:c5:4d:
                    b4:34:05:a7:0a:92:ce:c0:af:f5:88:cb:3c:c7:35:
                    fe:3a:3b:db:e0:6e:f2:7e:b7:c2:09:5f:70:a1:48:
                    20:60:40:0c:18:34:44:f1:b0:90:17:7c:51:41:06:
                    81:5a:f6:05:69:a7:59:c6:b9:64:36:83:ae:72:e5:
                    be:ca:96:55:3a:09:80:a7:0a:ed:fd:4e:74:84:ad:
                    9a:a0:38:6c:ab:54:28:a2:57:89:cb:62:32:de:a9:
                    1f:e8:32:ee:ee:a1:68:a2:b3:32:a9:a6:65:a6:92:
                    b8:9d
                Exponent: 65537 (0x10001)
        X509v3 extensions:
            X509v3 Basic Constraints: 
                CA:FALSE
            X509v3 Subject Key Identifier: 
                82:C2:34:36:59:4E:C3:B7:8A:79:DF:06:2A:E5:7B:31:03:66:A0:BB
            X509v3 Authority Key Identifier: 
                keyid:5E:D3:77:F0:13:B7:D1:5D:F1:C1:80:73:6E:67:97:CE:3B:0F:2C:87
                DirName:/CN=Kaholodemo Root CA 1
                serial:50:2B:20:DD:7F:25:E7:83:40:AA:86:AF:12:AF:6D:49:4B:78:E2:27
            X509v3 Extended Key Usage: 
                TLS Web Server Authentication
            X509v3 Key Usage: 
                Digital Signature, Key Encipherment
            X509v3 Subject Alternative Name: 
                DNS:kaholo-d.kaholodemo.net
    Signature Algorithm: sha256WithRSAEncryption
    Signature Value:
        cd:14:10:92:30:85:65:1f:79:30:9f:41:36:b3:43:59:cb:53:
        84:20:13:a5:59:bc:df:92:c8:60:e7:bf:78:70:30:26:65:bc:
        27:d4:e4:76:af:8a:49:f7:52:d4:89:46:a5:4e:39:dc:2d:78:
        14:79:59:aa:c5:de:ab:19:3e:5d:54:ef:e4:d6:34:37:91:75:
        31:b5:5c:6f:d9:c2:f3:01:5b:75:10:6e:a2:c8:01:dc:a9:36:
        2e:11:2e:c5:41:9e:a2:1d:58:48:61:93:06:ee:9e:83:cf:46:
        c8:34:52:f5:84:61:79:f7:98:1b:93:ed:e1:c7:bf:df:66:d8:
        a7:31:6a:59:5a:1b:b0:89:18:5b:38:1f:ae:5a:5f:cd:e8:eb:
        d9:2a:70:04:a1:c6:a1:05:a4:d9:bb:5e:cd:1a:83:98:36:1d:
        3a:be:49:cf:bb:ec:aa:1b:0f:f3:0c:3e:77:06:44:b6:cf:92:
        8d:42:17:62:64:59:ba:61:d2:9d:53:f7:39:22:f0:0c:a9:34:
        5f:42:0c:4d:ad:98:7a:ab:ef:27:d0:6d:d9:80:50:37:f6:7c:
        90:81:97:0a:44:b1:76:c1:0a:ff:50:43:c2:8a:97:9d:04:4d:
        3e:1a:c9:c1:a8:f6:1e:4a:93:07:e2:b6:ab:ba:b2:a2:08:6e:
        46:05:7d:9d
-----BEGIN CERTIFICATE-----
MIIELzCCAxegAwIBAgIQYmC8LzyDNNo+Gq0sKqH6gTANBgkqhkiG9w0BAQsFADAf
MR0wGwYDVQQDDBRLYWhvbG9kZW1vIFJvb3QgQ0EgMTAeFw0yMjA5MTkxMjM1MzZa
Fw0yNDEyMjIxMjM1MzZaMIG1MQswCQYDVQQGEwJGSTEUMBIGA1UECAwLS3ltZW5s
YWFrc28xDzANBgNVBAcMBkhhbWluYTETMBEGA1UECgwKS2Fob2xvZGVtbzEjMCEG
A1UECwwaVHJhaW5pbmcgYW5kIERlbW9uc3RyYXRpb24xIDAeBgNVBAMMF2thaG9s
by1kLmthaG9sb2RlbW8ubmV0MSMwIQYJKoZIhvcNAQkBFhRhZG1pbkBrYWhvbG9k
ZW1vLm5ldDCCASIwDQYJKoZIhvcNAQEBBQADggEPADCCAQoCggEBAOGinb3xk8x6
KG8uyPESMwV2Z6CUA9TnChuB+f7z4SCGuChn0kjkB7x6X8g1paMzvOKtxJ3GJH24
K6tIG7jN7bmcM26Qa8Hfx3PIF1wSClyvf6isF9FOEdDIx1ZospOKAxeJcA7O8lGF
xWazRzzwy6NAB0BGysU3tXphTaL48IsqBq/PFuWSvJaW9slRwfdHxckbL8VNtDQF
pwqSzsCv9YjLPMc1/jo72+Bu8n63wglfcKFIIGBADBg0RPGwkBd8UUEGgVr2BWmn
Wca5ZDaDrnLlvsqWVToJgKcK7f1OdIStmqA4bKtUKKJXictiMt6pH+gy7u6haKKz
MqmmZaaSuJ0CAwEAAaOBzzCBzDAJBgNVHRMEAjAAMB0GA1UdDgQWBBSCwjQ2WU7D
t4p53wYq5XsxA2aguzBaBgNVHSMEUzBRgBRe03fwE7fRXfHBgHNuZ5fOOw8sh6Ej
pCEwHzEdMBsGA1UEAwwUS2Fob2xvZGVtbyBSb290IENBIDGCFFArIN1/JeeDQKqG
rxKvbUlLeOInMBMGA1UdJQQMMAoGCCsGAQUFBwMBMAsGA1UdDwQEAwIFoDAiBgNV
HREEGzAZghdrYWhvbG8tZC5rYWhvbG9kZW1vLm5ldDANBgkqhkiG9w0BAQsFAAOC
AQEAzRQQkjCFZR95MJ9BNrNDWctThCATpVm835LIYOe/eHAwJmW8J9Tkdq+KSfdS
1IlGpU453C14FHlZqsXeqxk+XVTv5NY0N5F1MbVcb9nC8wFbdRBuosgB3Kk2LhEu
xUGeoh1YSGGTBu6eg89GyDRS9YRhefeYG5Pt4ce/32bYpzFqWVobsIkYWzgfrlpf
zejr2SpwBKHGoQWk2btezRqDmDYdOr5Jz7vsqhsP8ww+dwZEts+SjUIXYmRZumHS
nVP3OSLwDKk0X0IMTa2YeqvvJ9Bt2YBQN/Z8kIGXCkSxdsEK/1BDwoqXnQRNPhrJ
waj2HkqTB+K2q7qyoghuRgV9nQ==
-----END CERTIFICATE-----
