Certificate:
    Data:
        Version: 3 (0x2)
        Serial Number:
            65:de:3f:34:80:2f:75:c5:67:4c:1a:25:af:09:0e:e5
        Signature Algorithm: sha256WithRSAEncryption
        Issuer: CN=Kaholodemo Root CA 1
        Validity
            Not Before: Mar 21 15:28:54 2023 GMT
            Not After : Jun 23 15:28:54 2025 GMT
        Subject: C=FI, ST=Kymenlaakso, L=Hamina, O=Kaholodemo, OU=Training and Demonstration, CN=kaholo-d.kaholodemo.net/emailAddress=admin@kaholodemo.net
        Subject Public Key Info:
            Public Key Algorithm: rsaEncryption
                Public-Key: (2048 bit)
                Modulus:
                    00:c3:ea:13:1e:4b:9a:6e:ef:c2:5c:7f:a5:fc:06:
                    65:5c:8d:20:84:8a:63:4e:3f:2f:f6:af:2e:fc:5b:
                    45:7f:05:c6:00:0e:4a:c8:00:6d:ea:fa:7d:0e:80:
                    5c:fe:a8:0d:ee:42:d0:bf:55:37:4b:a9:61:84:83:
                    a3:64:68:7b:e0:f3:20:b9:8a:2f:d7:03:1a:ce:d2:
                    eb:da:16:10:1c:55:bc:b7:34:91:85:b6:0e:75:c3:
                    50:7b:25:2d:44:ca:37:40:c8:95:c8:43:88:43:c0:
                    20:aa:d6:a6:b9:70:77:f1:c3:fa:e6:c8:6c:d5:ab:
                    05:89:01:02:5f:2c:60:35:4b:ab:0d:b8:d7:41:cd:
                    6a:0b:ef:81:86:3e:18:f4:06:e7:cf:55:54:cc:ed:
                    3c:bc:93:77:ae:c4:1c:03:db:b4:76:11:4f:c1:ac:
                    42:6f:b5:bd:e1:3b:89:a3:2e:f0:a1:c0:15:3c:4a:
                    7b:bf:2f:b4:75:b6:f8:d1:96:1d:52:06:3a:33:29:
                    5d:c0:6a:83:e6:6b:58:fb:8c:19:0a:bf:e2:3b:6b:
                    2d:85:4e:1e:79:fa:25:23:08:d9:26:b0:79:5d:28:
                    10:3c:d3:ee:78:69:a2:89:d2:03:56:62:04:f0:82:
                    be:3b:19:ac:67:ea:eb:bb:83:a3:ff:a8:ea:2a:fd:
                    a4:c3
                Exponent: 65537 (0x10001)
        X509v3 extensions:
            X509v3 Basic Constraints: 
                CA:FALSE
            X509v3 Subject Key Identifier: 
                7B:C2:D0:4B:DD:38:46:15:DC:DD:30:2D:F1:70:02:84:EA:7C:8C:0A
            X509v3 Authority Key Identifier: 
                keyid:5E:D3:77:F0:13:B7:D1:5D:F1:C1:80:73:6E:67:97:CE:3B:0F:2C:87
                DirName:/CN=Kaholodemo Root CA 1
                serial:50:2B:20:DD:7F:25:E7:83:40:AA:86:AF:12:AF:6D:49:4B:78:E2:27
            X509v3 Extended Key Usage: 
                TLS Web Server Authentication
            X509v3 Key Usage: 
                Digital Signature, Key Encipherment
            X509v3 Subject Alternative Name: 
                DNS:kaholo-d.kaholodemo.net, DNS:kaholo-d-ws.kaholodemo.net
    Signature Algorithm: sha256WithRSAEncryption
    Signature Value:
        01:a8:e2:b9:3f:90:eb:1e:21:b7:f6:f0:6a:72:79:51:04:d8:
        eb:f8:88:ff:5a:72:95:9d:88:ac:0f:17:8c:3b:cb:f2:cd:23:
        84:e2:83:36:88:a4:c0:f9:86:7f:af:74:cc:ed:63:a8:56:8f:
        7a:10:33:02:92:c0:05:4c:94:a5:02:aa:2f:41:c8:8e:2e:c3:
        3b:5a:4e:3b:27:aa:b8:db:95:4e:36:f1:47:97:77:08:ac:1b:
        de:1e:f8:ac:14:fb:94:9b:59:58:e3:49:a2:2c:b1:f9:4d:a9:
        63:c6:c5:19:5e:a6:d0:ae:77:cc:9a:79:4e:58:13:ff:98:4e:
        70:34:d5:6c:99:84:60:0d:2e:40:42:f0:0a:03:84:33:6d:c3:
        1c:97:c5:88:bc:a9:29:83:7f:29:79:78:0c:30:81:93:9d:fc:
        a9:39:60:a1:47:18:ed:76:9d:78:06:bd:e4:9d:11:b6:27:5a:
        61:6e:61:86:2d:03:2d:19:19:32:b2:17:ed:d5:35:63:2f:8b:
        49:21:fa:17:54:a0:6a:cb:b0:9b:53:33:35:34:37:2f:9b:3f:
        10:37:72:84:a8:7b:fc:4f:f2:65:92:1c:5d:2c:52:31:96:13:
        55:7b:03:60:f3:88:1e:91:ab:51:33:b0:f9:77:36:00:d9:cb:
        6f:21:0b:95
-----BEGIN CERTIFICATE-----
MIIESzCCAzOgAwIBAgIQZd4/NIAvdcVnTBolrwkO5TANBgkqhkiG9w0BAQsFADAf
MR0wGwYDVQQDDBRLYWhvbG9kZW1vIFJvb3QgQ0EgMTAeFw0yMzAzMjExNTI4NTRa
Fw0yNTA2MjMxNTI4NTRaMIG1MQswCQYDVQQGEwJGSTEUMBIGA1UECAwLS3ltZW5s
YWFrc28xDzANBgNVBAcMBkhhbWluYTETMBEGA1UECgwKS2Fob2xvZGVtbzEjMCEG
A1UECwwaVHJhaW5pbmcgYW5kIERlbW9uc3RyYXRpb24xIDAeBgNVBAMMF2thaG9s
by1kLmthaG9sb2RlbW8ubmV0MSMwIQYJKoZIhvcNAQkBFhRhZG1pbkBrYWhvbG9k
ZW1vLm5ldDCCASIwDQYJKoZIhvcNAQEBBQADggEPADCCAQoCggEBAMPqEx5Lmm7v
wlx/pfwGZVyNIISKY04/L/avLvxbRX8FxgAOSsgAber6fQ6AXP6oDe5C0L9VN0up
YYSDo2Roe+DzILmKL9cDGs7S69oWEBxVvLc0kYW2DnXDUHslLUTKN0DIlchDiEPA
IKrWprlwd/HD+ubIbNWrBYkBAl8sYDVLqw2410HNagvvgYY+GPQG589VVMztPLyT
d67EHAPbtHYRT8GsQm+1veE7iaMu8KHAFTxKe78vtHW2+NGWHVIGOjMpXcBqg+Zr
WPuMGQq/4jtrLYVOHnn6JSMI2SaweV0oEDzT7nhpoonSA1ZiBPCCvjsZrGfq67uD
o/+o6ir9pMMCAwEAAaOB6zCB6DAJBgNVHRMEAjAAMB0GA1UdDgQWBBR7wtBL3ThG
FdzdMC3xcAKE6nyMCjBaBgNVHSMEUzBRgBRe03fwE7fRXfHBgHNuZ5fOOw8sh6Ej
pCEwHzEdMBsGA1UEAwwUS2Fob2xvZGVtbyBSb290IENBIDGCFFArIN1/JeeDQKqG
rxKvbUlLeOInMBMGA1UdJQQMMAoGCCsGAQUFBwMBMAsGA1UdDwQEAwIFoDA+BgNV
HREENzA1ghdrYWhvbG8tZC5rYWhvbG9kZW1vLm5ldIIaa2Fob2xvLWQtd3Mua2Fo
b2xvZGVtby5uZXQwDQYJKoZIhvcNAQELBQADggEBAAGo4rk/kOseIbf28GpyeVEE
2Ov4iP9acpWdiKwPF4w7y/LNI4TigzaIpMD5hn+vdMztY6hWj3oQMwKSwAVMlKUC
qi9ByI4uwztaTjsnqrjblU428UeXdwisG94e+KwU+5SbWVjjSaIssflNqWPGxRle
ptCud8yaeU5YE/+YTnA01WyZhGANLkBC8AoDhDNtwxyXxYi8qSmDfyl5eAwwgZOd
/Kk5YKFHGO12nXgGveSdEbYnWmFuYYYtAy0ZGTKyF+3VNWMvi0kh+hdUoGrLsJtT
MzU0Ny+bPxA3coSoe/xP8mWSHF0sUjGWE1V7A2DziB6Rq1EzsPl3NgDZy28hC5U=
-----END CERTIFICATE-----
